; Function Attrs: nounwind sspstrong uwtable
define internal fastcc void @ivshmem_disable_irqfd(ptr noundef %s) unnamed_addr #0 {
entry:
  %call.i = tail call ptr @object_dynamic_cast_assert(ptr noundef %s, ptr noundef nonnull @.str.1, ptr noundef nonnull @.str.6, i32 noundef 10, ptr noundef nonnull @__func__.PCI_DEVICE) #11
  %msix_vector_use_notifier = getelementptr inbounds nuw i8, ptr %call.i, i64 2560
  %0 = load ptr, ptr %msix_vector_use_notifier, align 16
  %tobool.not = icmp eq ptr %0, null
  br i1 %tobool.not, label %for.end, label %if.end

if.end:                                           ; preds = %entry
  tail call void @msix_unset_vector_notifiers(ptr noundef nonnull %call.i) #11
  %peers = getelementptr inbounds nuw i8, ptr %s, i64 3264
  %vm_id = getelementptr inbounds nuw i8, ptr %s, i64 2688
  %1 = load ptr, ptr %peers, align 16
  %2 = load i32, ptr %vm_id, align 16
  %idxprom11 = sext i32 %2 to i64
  %arrayidx12 = getelementptr %struct.Peer, ptr %1, i64 %idxprom11
  %3 = load i32, ptr %arrayidx12, align 8
  %cmp13 = icmp sgt i32 %3, 0
  br i1 %cmp13, label %for.body.lr.ph, label %for.end

for.body.lr.ph:                                   ; preds = %if.end
  %msi_vectors = getelementptr inbounds nuw i8, ptr %s, i64 3280
  br label %for.body

for.body:                                         ; preds = %for.body.lr.ph, %ivshmem_remove_kvm_msi_virq.exit
  %indvars.iv = phi i64 [ 0, %for.body.lr.ph ], [ %indvars.iv.next, %ivshmem_remove_kvm_msi_virq.exit ]
  %4 = load ptr, ptr %msi_vectors, align 16
  %unmasked = getelementptr %struct.MSIVector, ptr %4, i64 %indvars.iv, i32 2
  %5 = load i8, ptr %unmasked, align 4
  %tobool3 = trunc i8 %5 to i1
  br i1 %tobool3, label %if.then4, label %if.end5

if.then4:                                         ; preds = %for.body
  %6 = trunc nuw nsw i64 %indvars.iv to i32
  tail call void @ivshmem_vector_mask(ptr noundef nonnull %call.i, i32 noundef %6)
  %.pre = load ptr, ptr %msi_vectors, align 16
  br label %if.end5

if.end5:                                          ; preds = %if.then4, %for.body
  %7 = phi ptr [ %.pre, %if.then4 ], [ %4, %for.body ]
  %arrayidx.i = getelementptr %struct.MSIVector, ptr %7, i64 %indvars.iv
  %8 = load ptr, ptr %arrayidx.i, align 8
  %cmp.i = icmp eq ptr %8, null
  br i1 %cmp.i, label %ivshmem_remove_kvm_msi_virq.exit, label %if.end.i

if.end.i:                                         ; preds = %if.end5
  %9 = load ptr, ptr @kvm_state, align 8
  %virq.i = getelementptr inbounds nuw i8, ptr %arrayidx.i, i64 8
  %10 = load i32, ptr %virq.i, align 8
  tail call void @kvm_irqchip_release_virq(ptr noundef %9, i32 noundef %10) #11
  %11 = load ptr, ptr %msi_vectors, align 16
  %arrayidx6.i = getelementptr %struct.MSIVector, ptr %11, i64 %indvars.iv
  store ptr null, ptr %arrayidx6.i, align 8
  br label %ivshmem_remove_kvm_msi_virq.exit

ivshmem_remove_kvm_msi_virq.exit:                 ; preds = %if.end5, %if.end.i
  %indvars.iv.next = add nuw nsw i64 %indvars.iv, 1
  %12 = load ptr, ptr %peers, align 16
  %13 = load i32, ptr %vm_id, align 16
  %idxprom = sext i32 %13 to i64
  %arrayidx = getelementptr %struct.Peer, ptr %12, i64 %idxprom
  %14 = load i32, ptr %arrayidx, align 8
  %15 = sext i32 %14 to i64
  %cmp = icmp slt i64 %indvars.iv.next, %15
  br i1 %cmp, label %for.body, label %for.end, !llvm.loop !15

for.end:                                          ; preds = %ivshmem_remove_kvm_msi_virq.exit, %if.end, %entry
  ret void
}